; Function Attrs: null_pointer_is_valid sspstrong uwtable
define internal i32 @dissect_ipcp_iphc_rtp_compress(ptr noundef %0, ptr noundef %1, ptr noundef %2, ptr readnone captures(none) %3) #1 {
  %5 = alloca ptr, align 8
  %6 = alloca ptr, align 8
  call void @llvm.lifetime.start.p0(i64 8, ptr nonnull %5) #8
  call void @llvm.lifetime.start.p0(i64 8, ptr nonnull %6) #8
  %7 = load i32, ptr @proto_ipcp_iphc_option_rtp_compress, align 4
  %8 = load i32, ptr @ett_ipcp_iphc_rtp_compress_opt, align 4
  %9 = call fastcc zeroext i1 @dissect_ipcp_iphc_fixed_opt(ptr noundef %0, ptr noundef %1, ptr noundef %2, i32 noundef %7, i32 noundef %8, i32 noundef 2, ptr noundef nonnull %5, ptr noundef nonnull %6)
  %10 = tail call i32 @tvb_captured_length(ptr noundef %0)
  call void @llvm.lifetime.end.p0(i64 8, ptr nonnull %6) #8
  call void @llvm.lifetime.end.p0(i64 8, ptr nonnull %5) #8
  ret i32 %10
}